; Function Attrs: mustprogress nofree norecurse nosync nounwind memory(argmem: readwrite) uwtable
define internal noundef i32 @_ZN2cvL10normL2_32sEPKiPKhPdii(ptr noundef readonly captures(none) %0, ptr noundef readonly %1, ptr noundef captures(none) %2, i32 noundef %3, i32 noundef %4) #6 {
  %6 = load double, ptr %2, align 8
  %.not.i = icmp eq ptr %1, null
  br i1 %.not.i, label %17, label %.preheader27.i

.preheader27.i:                                   ; preds = %5
  %7 = icmp sgt i32 %3, 0
  br i1 %7, label %.lr.ph34.i, label %_ZN2cv7normL2_IidEEiPKT_PKhPT0_ii.exit

.lr.ph34.i:                                       ; preds = %.preheader27.i
  %8 = icmp sgt i32 %4, 0
  %9 = sext i32 %4 to i64
  br i1 %8, label %.lr.ph34.split.us.preheader.i, label %_ZN2cv7normL2_IidEEiPKT_PKhPT0_ii.exit

.lr.ph34.split.us.preheader.i:                    ; preds = %.lr.ph34.i
  %wide.trip.count42.i = zext nneg i32 %3 to i64
  %wide.trip.count.i = zext nneg i32 %4 to i64
  br label %.lr.ph34.split.us.i

.lr.ph34.split.us.i:                              ; preds = %..loopexit_crit_edge.us.i, %.lr.ph34.split.us.preheader.i
  %indvars.iv39.i = phi i64 [ 0, %.lr.ph34.split.us.preheader.i ], [ %indvars.iv.next40.i, %..loopexit_crit_edge.us.i ]
  %.033.us.i = phi ptr [ %0, %.lr.ph34.split.us.preheader.i ], [ %16, %..loopexit_crit_edge.us.i ]
  %.131.us.i = phi double [ %6, %.lr.ph34.split.us.preheader.i ], [ %.3.us.i, %..loopexit_crit_edge.us.i ]
  %10 = getelementptr inbounds nuw i8, ptr %1, i64 %indvars.iv39.i
  %11 = load i8, ptr %10, align 1
  %.not26.us.i = icmp eq i8 %11, 0
  br i1 %.not26.us.i, label %..loopexit_crit_edge.us.i, label %.preheader.us.i

.preheader.us.i:                                  ; preds = %.lr.ph34.split.us.i, %.preheader.us.i
  %indvars.iv.i = phi i64 [ %indvars.iv.next.i, %.preheader.us.i ], [ 0, %.lr.ph34.split.us.i ]
  %.229.us.i = phi double [ %15, %.preheader.us.i ], [ %.131.us.i, %.lr.ph34.split.us.i ]
  %12 = getelementptr inbounds nuw i32, ptr %.033.us.i, i64 %indvars.iv.i
  %13 = load i32, ptr %12, align 4
  %14 = sitofp i32 %13 to double
  %15 = tail call double @llvm.fmuladd.f64(double %14, double %14, double %.229.us.i)
  %indvars.iv.next.i = add nuw nsw i64 %indvars.iv.i, 1
  %exitcond.not.i = icmp eq i64 %indvars.iv.next.i, %wide.trip.count.i
  br i1 %exitcond.not.i, label %..loopexit_crit_edge.us.i, label %.preheader.us.i, !llvm.loop !106

..loopexit_crit_edge.us.i:                        ; preds = %.preheader.us.i, %.lr.ph34.split.us.i
  %.3.us.i = phi double [ %.131.us.i, %.lr.ph34.split.us.i ], [ %15, %.preheader.us.i ]
  %indvars.iv.next40.i = add nuw nsw i64 %indvars.iv39.i, 1
  %16 = getelementptr inbounds nuw i32, ptr %.033.us.i, i64 %9
  %exitcond43.not.i = icmp eq i64 %indvars.iv.next40.i, %wide.trip.count42.i
  br i1 %exitcond43.not.i, label %_ZN2cv7normL2_IidEEiPKT_PKhPT0_ii.exit, label %.lr.ph34.split.us.i, !llvm.loop !107

17:                                               ; preds = %5
  %18 = mul nsw i32 %4, %3
  %19 = icmp sgt i32 %18, 0
  br i1 %19, label %.lr.ph.preheader.i.i, label %_ZN2cvL9normL2SqrIidEET0_PKT_i.exit.i

.lr.ph.preheader.i.i:                             ; preds = %17
  %wide.trip.count.i.i = zext nneg i32 %18 to i64
  br label %.lr.ph.i.i

.lr.ph.i.i:                                       ; preds = %.lr.ph.i.i, %.lr.ph.preheader.i.i
  %indvars.iv.i.i = phi i64 [ 0, %.lr.ph.preheader.i.i ], [ %indvars.iv.next.i.i, %.lr.ph.i.i ]
  %.010.i.i = phi double [ 0.000000e+00, %.lr.ph.preheader.i.i ], [ %23, %.lr.ph.i.i ]
  %20 = getelementptr inbounds nuw i32, ptr %0, i64 %indvars.iv.i.i
  %21 = load i32, ptr %20, align 4
  %22 = sitofp i32 %21 to double
  %23 = tail call double @llvm.fmuladd.f64(double %22, double %22, double %.010.i.i)
  %indvars.iv.next.i.i = add nuw nsw i64 %indvars.iv.i.i, 1
  %exitcond.not.i.i = icmp eq i64 %indvars.iv.next.i.i, %wide.trip.count.i.i
  br i1 %exitcond.not.i.i, label %_ZN2cvL9normL2SqrIidEET0_PKT_i.exit.i, label %.lr.ph.i.i, !llvm.loop !108

_ZN2cvL9normL2SqrIidEET0_PKT_i.exit.i:            ; preds = %.lr.ph.i.i, %17
  %.0.lcssa.i.i = phi double [ 0.000000e+00, %17 ], [ %23, %.lr.ph.i.i ]
  %24 = fadd double %6, %.0.lcssa.i.i
  br label %_ZN2cv7normL2_IidEEiPKT_PKhPT0_ii.exit

_ZN2cv7normL2_IidEEiPKT_PKhPT0_ii.exit:           ; preds = %..loopexit_crit_edge.us.i, %.preheader27.i, %.lr.ph34.i, %_ZN2cvL9normL2SqrIidEET0_PKT_i.exit.i
  %.024.i = phi double [ %24, %_ZN2cvL9normL2SqrIidEET0_PKT_i.exit.i ], [ %6, %.preheader27.i ], [ %6, %.lr.ph34.i ], [ %.3.us.i, %..loopexit_crit_edge.us.i ]
  store double %.024.i, ptr %2, align 8
  ret i32 0
}